target datalayout = "e-m:e-p270:32:32-p271:32:32-p272:64:64-i64:64-i128:128-f80:128-n8:16:32:64-S128"
target triple = "x86_64-pc-linux-gnu"

%struct.ExprEvalOpLookup = type { ptr, i32 }
%struct.ExprState = type { i32, i8, i8, i64, ptr, ptr, ptr, ptr, ptr, i32, i32, ptr, ptr, ptr, ptr, ptr, ptr, ptr }
%struct.ExprEvalStep = type { i64, ptr, ptr, %union.anon }
%union.anon = type { %struct.anon.23 }
%struct.anon.23 = type { ptr, ptr, i32, i32, ptr, ptr }
%struct.anon.0 = type { i32, i32, i32 }
%struct.ExprContext = type { i32, ptr, ptr, ptr, ptr, ptr, ptr, ptr, ptr, ptr, i64, i8, i64, i8, ptr, ptr, ptr, ptr }

@reverse_dispatch_table = internal global [116 x %struct.ExprEvalOpLookup] zeroinitializer, align 16

; Function Attrs: inlinehint nounwind uwtable
define available_externally ptr @bsearch(ptr noundef nonnull %0, ptr noundef nonnull %1, i64 noundef %2, i64 noundef %3, ptr noundef nonnull %4) #2 {
  %6 = alloca ptr, align 8
  %7 = alloca ptr, align 8
  %8 = alloca ptr, align 8
  %9 = alloca i64, align 8
  %10 = alloca i64, align 8
  %11 = alloca ptr, align 8
  %12 = alloca i64, align 8
  %13 = alloca i64, align 8
  %14 = alloca i64, align 8
  %15 = alloca ptr, align 8
  %16 = alloca i32, align 4
  %17 = alloca i32, align 4
  store ptr %0, ptr %7, align 8
  store ptr %1, ptr %8, align 8
  store i64 %2, ptr %9, align 8
  store i64 %3, ptr %10, align 8
  store ptr %4, ptr %11, align 8
  call void @llvm.lifetime.start.p0(i64 8, ptr %12) #11
  call void @llvm.lifetime.start.p0(i64 8, ptr %13) #11
  call void @llvm.lifetime.start.p0(i64 8, ptr %14) #11
  call void @llvm.lifetime.start.p0(i64 8, ptr %15) #11
  call void @llvm.lifetime.start.p0(i64 4, ptr %16) #11
  store i64 0, ptr %12, align 8
  %18 = load i64, ptr %9, align 8
  store i64 %18, ptr %13, align 8
  br label %19

19:                                               ; preds = %50, %5
  %20 = load i64, ptr %12, align 8
  %21 = load i64, ptr %13, align 8
  %22 = icmp ult i64 %20, %21
  br i1 %22, label %23, label %51

23:                                               ; preds = %19
  %24 = load i64, ptr %12, align 8
  %25 = load i64, ptr %13, align 8
  %26 = add i64 %24, %25
  %27 = udiv i64 %26, 2
  store i64 %27, ptr %14, align 8
  %28 = load ptr, ptr %8, align 8
  %29 = load i64, ptr %14, align 8
  %30 = load i64, ptr %10, align 8
  %31 = mul i64 %29, %30
  %32 = getelementptr inbounds nuw i8, ptr %28, i64 %31
  store ptr %32, ptr %15, align 8
  %33 = load ptr, ptr %11, align 8
  %34 = load ptr, ptr %7, align 8
  %35 = load ptr, ptr %15, align 8
  %36 = call i32 %33(ptr noundef %34, ptr noundef %35)
  store i32 %36, ptr %16, align 4
  %37 = load i32, ptr %16, align 4
  %38 = icmp slt i32 %37, 0
  br i1 %38, label %39, label %41

39:                                               ; preds = %23
  %40 = load i64, ptr %14, align 8
  store i64 %40, ptr %13, align 8
  br label %50

41:                                               ; preds = %23
  %42 = load i32, ptr %16, align 4
  %43 = icmp sgt i32 %42, 0
  br i1 %43, label %44, label %47

44:                                               ; preds = %41
  %45 = load i64, ptr %14, align 8
  %46 = add i64 %45, 1
  store i64 %46, ptr %12, align 8
  br label %49

47:                                               ; preds = %41
  %48 = load ptr, ptr %15, align 8
  store ptr %48, ptr %6, align 8
  store i32 1, ptr %17, align 4
  br label %52

49:                                               ; preds = %44
  br label %50

50:                                               ; preds = %49, %39
  br label %19, !llvm.loop !14

51:                                               ; preds = %19
  store ptr null, ptr %6, align 8
  store i32 1, ptr %17, align 4
  br label %52

52:                                               ; preds = %51, %47
  call void @llvm.lifetime.end.p0(i64 4, ptr %16) #11
  call void @llvm.lifetime.end.p0(i64 8, ptr %15) #11
  call void @llvm.lifetime.end.p0(i64 8, ptr %14) #11
  call void @llvm.lifetime.end.p0(i64 8, ptr %13) #11
  call void @llvm.lifetime.end.p0(i64 8, ptr %12) #11
  %53 = load ptr, ptr %6, align 8
  ret ptr %53
}

; Function Attrs: nounwind uwtable
define dso_local i32 @ExecEvalStepOp(ptr noundef %0, ptr noundef %1) #0 {
  %3 = alloca i32, align 4
  %4 = alloca ptr, align 8
  %5 = alloca ptr, align 8
  %6 = alloca %struct.ExprEvalOpLookup, align 8
  %7 = alloca ptr, align 8
  store ptr %0, ptr %4, align 8
  store ptr %1, ptr %5, align 8
  %8 = load ptr, ptr %4, align 8
  %9 = getelementptr inbounds nuw %struct.ExprState, ptr %8, i32 0, i32 1
  %10 = load i8, ptr %9, align 4
  %11 = zext i8 %10 to i32
  %12 = and i32 %11, 64
  %13 = icmp ne i32 %12, 0
  br i1 %13, label %14, label %24

14:                                               ; preds = %2
  call void @llvm.lifetime.start.p0(i64 16, ptr %6) #11
  call void @llvm.lifetime.start.p0(i64 8, ptr %7) #11
  %15 = load ptr, ptr %5, align 8
  %16 = getelementptr inbounds nuw %struct.ExprEvalStep, ptr %15, i32 0, i32 0
  %17 = load i64, ptr %16, align 8
  %18 = inttoptr i64 %17 to ptr
  %19 = getelementptr inbounds nuw %struct.ExprEvalOpLookup, ptr %6, i32 0, i32 0
  store ptr %18, ptr %19, align 8
  %20 = call ptr @bsearch(ptr noundef %6, ptr noundef @reverse_dispatch_table, i64 noundef 116, i64 noundef 16, ptr noundef @dispatch_compare_ptr)
  store ptr %20, ptr %7, align 8
  %21 = load ptr, ptr %7, align 8
  %22 = getelementptr inbounds nuw %struct.ExprEvalOpLookup, ptr %21, i32 0, i32 1
  %23 = load i32, ptr %22, align 8
  store i32 %23, ptr %3, align 4
  call void @llvm.lifetime.end.p0(i64 8, ptr %7) #11
  call void @llvm.lifetime.end.p0(i64 16, ptr %6) #11
  br label %29

24:                                               ; preds = %2
  %25 = load ptr, ptr %5, align 8
  %26 = getelementptr inbounds nuw %struct.ExprEvalStep, ptr %25, i32 0, i32 0
  %27 = load i64, ptr %26, align 8
  %28 = trunc i64 %27 to i32
  store i32 %28, ptr %3, align 4
  br label %29

29:                                               ; preds = %24, %14
  %30 = load i32, ptr %3, align 4
  ret i32 %30
}

; Function Attrs: nounwind uwtable
define dso_local void @CheckExprStillValid(ptr noundef %0, ptr noundef %1) #0 {
  %3 = alloca ptr, align 8
  %4 = alloca ptr, align 8
  %5 = alloca ptr, align 8
  %6 = alloca ptr, align 8
  %7 = alloca ptr, align 8
  %8 = alloca ptr, align 8
  %9 = alloca ptr, align 8
  %10 = alloca i32, align 4
  %11 = alloca i32, align 4
  %12 = alloca ptr, align 8
  %13 = alloca i32, align 4
  %14 = alloca i32, align 4
  %15 = alloca i32, align 4
  %16 = alloca i32, align 4
  %17 = alloca i32, align 4
  store ptr %0, ptr %3, align 8
  store ptr %1, ptr %4, align 8
  call void @llvm.lifetime.start.p0(i64 8, ptr %5) #11
  call void @llvm.lifetime.start.p0(i64 8, ptr %6) #11
  call void @llvm.lifetime.start.p0(i64 8, ptr %7) #11
  call void @llvm.lifetime.start.p0(i64 8, ptr %8) #11
  call void @llvm.lifetime.start.p0(i64 8, ptr %9) #11
  %18 = load ptr, ptr %4, align 8
  %19 = getelementptr inbounds nuw %struct.ExprContext, ptr %18, i32 0, i32 2
  %20 = load ptr, ptr %19, align 8
  store ptr %20, ptr %5, align 8
  %21 = load ptr, ptr %4, align 8
  %22 = getelementptr inbounds nuw %struct.ExprContext, ptr %21, i32 0, i32 3
  %23 = load ptr, ptr %22, align 8
  store ptr %23, ptr %6, align 8
  %24 = load ptr, ptr %4, align 8
  %25 = getelementptr inbounds nuw %struct.ExprContext, ptr %24, i32 0, i32 1
  %26 = load ptr, ptr %25, align 8
  store ptr %26, ptr %7, align 8
  %27 = load ptr, ptr %4, align 8
  %28 = getelementptr inbounds nuw %struct.ExprContext, ptr %27, i32 0, i32 14
  %29 = load ptr, ptr %28, align 8
  store ptr %29, ptr %8, align 8
  %30 = load ptr, ptr %4, align 8
  %31 = getelementptr inbounds nuw %struct.ExprContext, ptr %30, i32 0, i32 15
  %32 = load ptr, ptr %31, align 8
  store ptr %32, ptr %9, align 8
  call void @llvm.lifetime.start.p0(i64 4, ptr %10) #11
  store i32 0, ptr %10, align 4
  br label %33

33:                                               ; preds = %112, %2
  %34 = load i32, ptr %10, align 4
  %35 = load ptr, ptr %3, align 8
  %36 = getelementptr inbounds nuw %struct.ExprState, ptr %35, i32 0, i32 9
  %37 = load i32, ptr %36, align 8
  %38 = icmp slt i32 %34, %37
  br i1 %38, label %40, label %39

39:                                               ; preds = %33
  store i32 2, ptr %11, align 4
  call void @llvm.lifetime.end.p0(i64 4, ptr %10) #11
  br label %115

40:                                               ; preds = %33
  call void @llvm.lifetime.start.p0(i64 8, ptr %12) #11
  %41 = load ptr, ptr %3, align 8
  %42 = getelementptr inbounds nuw %struct.ExprState, ptr %41, i32 0, i32 5
  %43 = load ptr, ptr %42, align 8
  %44 = load i32, ptr %10, align 4
  %45 = sext i32 %44 to i64
  %46 = getelementptr inbounds %struct.ExprEvalStep, ptr %43, i64 %45
  store ptr %46, ptr %12, align 8
  %47 = load ptr, ptr %3, align 8
  %48 = load ptr, ptr %12, align 8
  %49 = call i32 @ExecEvalStepOp(ptr noundef %47, ptr noundef %48)
  switch i32 %49, label %110 [
    i32 6, label %50
    i32 7, label %62
    i32 8, label %74
    i32 9, label %86
    i32 10, label %98
  ]

50:                                               ; preds = %40
  call void @llvm.lifetime.start.p0(i64 4, ptr %13) #11
  %51 = load ptr, ptr %12, align 8
  %52 = getelementptr inbounds nuw %struct.ExprEvalStep, ptr %51, i32 0, i32 3
  %53 = getelementptr inbounds nuw %struct.anon.0, ptr %52, i32 0, i32 0
  %54 = load i32, ptr %53, align 8
  store i32 %54, ptr %13, align 4
  %55 = load ptr, ptr %5, align 8
  %56 = load i32, ptr %13, align 4
  %57 = add i32 %56, 1
  %58 = load ptr, ptr %12, align 8
  %59 = getelementptr inbounds nuw %struct.ExprEvalStep, ptr %58, i32 0, i32 3
  %60 = getelementptr inbounds nuw %struct.anon.0, ptr %59, i32 0, i32 1
  %61 = load i32, ptr %60, align 4
  call void @CheckVarSlotCompatibility(ptr noundef %55, i32 noundef %57, i32 noundef %61)
  store i32 5, ptr %11, align 4
  call void @llvm.lifetime.end.p0(i64 4, ptr %13) #11
  br label %111

62:                                               ; preds = %40
  call void @llvm.lifetime.start.p0(i64 4, ptr %14) #11
  %63 = load ptr, ptr %12, align 8
  %64 = getelementptr inbounds nuw %struct.ExprEvalStep, ptr %63, i32 0, i32 3
  %65 = getelementptr inbounds nuw %struct.anon.0, ptr %64, i32 0, i32 0
  %66 = load i32, ptr %65, align 8
  store i32 %66, ptr %14, align 4
  %67 = load ptr, ptr %6, align 8
  %68 = load i32, ptr %14, align 4
  %69 = add i32 %68, 1
  %70 = load ptr, ptr %12, align 8
  %71 = getelementptr inbounds nuw %struct.ExprEvalStep, ptr %70, i32 0, i32 3
  %72 = getelementptr inbounds nuw %struct.anon.0, ptr %71, i32 0, i32 1
  %73 = load i32, ptr %72, align 4
  call void @CheckVarSlotCompatibility(ptr noundef %67, i32 noundef %69, i32 noundef %73)
  store i32 5, ptr %11, align 4
  call void @llvm.lifetime.end.p0(i64 4, ptr %14) #11
  br label %111

74:                                               ; preds = %40
  call void @llvm.lifetime.start.p0(i64 4, ptr %15) #11
  %75 = load ptr, ptr %12, align 8
  %76 = getelementptr inbounds nuw %struct.ExprEvalStep, ptr %75, i32 0, i32 3
  %77 = getelementptr inbounds nuw %struct.anon.0, ptr %76, i32 0, i32 0
  %78 = load i32, ptr %77, align 8
  store i32 %78, ptr %15, align 4
  %79 = load ptr, ptr %7, align 8
  %80 = load i32, ptr %15, align 4
  %81 = add i32 %80, 1
  %82 = load ptr, ptr %12, align 8
  %83 = getelementptr inbounds nuw %struct.ExprEvalStep, ptr %82, i32 0, i32 3
  %84 = getelementptr inbounds nuw %struct.anon.0, ptr %83, i32 0, i32 1
  %85 = load i32, ptr %84, align 4
  call void @CheckVarSlotCompatibility(ptr noundef %79, i32 noundef %81, i32 noundef %85)
  store i32 5, ptr %11, align 4
  call void @llvm.lifetime.end.p0(i64 4, ptr %15) #11
  br label %111

86:                                               ; preds = %40
  call void @llvm.lifetime.start.p0(i64 4, ptr %16) #11
  %87 = load ptr, ptr %12, align 8
  %88 = getelementptr inbounds nuw %struct.ExprEvalStep, ptr %87, i32 0, i32 3
  %89 = getelementptr inbounds nuw %struct.anon.0, ptr %88, i32 0, i32 0
  %90 = load i32, ptr %89, align 8
  store i32 %90, ptr %16, align 4
  %91 = load ptr, ptr %8, align 8
  %92 = load i32, ptr %16, align 4
  %93 = add i32 %92, 1
  %94 = load ptr, ptr %12, align 8
  %95 = getelementptr inbounds nuw %struct.ExprEvalStep, ptr %94, i32 0, i32 3
  %96 = getelementptr inbounds nuw %struct.anon.0, ptr %95, i32 0, i32 1
  %97 = load i32, ptr %96, align 4
  call void @CheckVarSlotCompatibility(ptr noundef %91, i32 noundef %93, i32 noundef %97)
  store i32 5, ptr %11, align 4
  call void @llvm.lifetime.end.p0(i64 4, ptr %16) #11
  br label %111

98:                                               ; preds = %40
  call void @llvm.lifetime.start.p0(i64 4, ptr %17) #11
  %99 = load ptr, ptr %12, align 8
  %100 = getelementptr inbounds nuw %struct.ExprEvalStep, ptr %99, i32 0, i32 3
  %101 = getelementptr inbounds nuw %struct.anon.0, ptr %100, i32 0, i32 0
  %102 = load i32, ptr %101, align 8
  store i32 %102, ptr %17, align 4
  %103 = load ptr, ptr %9, align 8
  %104 = load i32, ptr %17, align 4
  %105 = add i32 %104, 1
  %106 = load ptr, ptr %12, align 8
  %107 = getelementptr inbounds nuw %struct.ExprEvalStep, ptr %106, i32 0, i32 3
  %108 = getelementptr inbounds nuw %struct.anon.0, ptr %107, i32 0, i32 1
  %109 = load i32, ptr %108, align 4
  call void @CheckVarSlotCompatibility(ptr noundef %103, i32 noundef %105, i32 noundef %109)
  store i32 5, ptr %11, align 4
  call void @llvm.lifetime.end.p0(i64 4, ptr %17) #11
  br label %111

110:                                              ; preds = %40
  br label %111

111:                                              ; preds = %110, %98, %86, %74, %62, %50
  call void @llvm.lifetime.end.p0(i64 8, ptr %12) #11
  br label %112

112:                                              ; preds = %111
  %113 = load i32, ptr %10, align 4
  %114 = add i32 %113, 1
  store i32 %114, ptr %10, align 4
  br label %33, !llvm.loop !13

115:                                              ; preds = %39
  call void @llvm.lifetime.end.p0(i64 8, ptr %9) #11
  call void @llvm.lifetime.end.p0(i64 8, ptr %8) #11
  call void @llvm.lifetime.end.p0(i64 8, ptr %7) #11
  call void @llvm.lifetime.end.p0(i64 8, ptr %6) #11
  call void @llvm.lifetime.end.p0(i64 8, ptr %5) #11
  ret void
}