; Function Attrs: nounwind uwtable
define dso_local void @CheckExprStillValid(ptr noundef readonly captures(none) %0, ptr noundef readonly captures(none) %1) local_unnamed_addr #0 {
  %3 = getelementptr inbounds nuw i8, ptr %1, i64 16
  %4 = load ptr, ptr %3, align 8
  %5 = getelementptr inbounds nuw i8, ptr %1, i64 24
  %6 = load ptr, ptr %5, align 8
  %7 = getelementptr inbounds nuw i8, ptr %1, i64 8
  %8 = load ptr, ptr %7, align 8
  %9 = getelementptr inbounds nuw i8, ptr %1, i64 112
  %10 = load ptr, ptr %9, align 8
  %11 = getelementptr inbounds nuw i8, ptr %1, i64 120
  %12 = load ptr, ptr %11, align 8
  %13 = getelementptr inbounds nuw i8, ptr %0, i64 56
  %14 = load i32, ptr %13, align 8
  %15 = icmp sgt i32 %14, 0
  br i1 %15, label %.lr.ph, label %._crit_edge

.lr.ph:                                           ; preds = %2
  %16 = getelementptr inbounds nuw i8, ptr %0, i64 24
  %17 = getelementptr inbounds nuw i8, ptr %0, i64 4
  br label %18

._crit_edge:                                      ; preds = %49, %2
  ret void

18:                                               ; preds = %.lr.ph, %49
  %indvars.iv = phi i64 [ 0, %.lr.ph ], [ %indvars.iv.next, %49 ]
  %19 = load ptr, ptr %16, align 8
  %20 = getelementptr inbounds nuw %struct.ExprEvalStep, ptr %19, i64 %indvars.iv
  %21 = load i8, ptr %17, align 4
  %22 = and i8 %21, 64
  %.not.i = icmp eq i8 %22, 0
  %23 = load i64, ptr %20, align 8
  br i1 %.not.i, label %38, label %24

24:                                               ; preds = %18
  %25 = inttoptr i64 %23 to ptr
  br label %.lr.ph.i.i

.lr.ph.i.i:                                       ; preds = %35, %24
  %.01621.i.i = phi i64 [ %.1.i.i, %35 ], [ 0, %24 ]
  %.01720.i.i = phi i64 [ %.118.i.i, %35 ], [ 116, %24 ]
  %26 = add i64 %.01720.i.i, %.01621.i.i
  %27 = lshr i64 %26, 1
  %28 = shl i64 %27, 4
  %29 = getelementptr inbounds nuw i8, ptr @reverse_dispatch_table, i64 %28
  %30 = load ptr, ptr %29, align 16
  %31 = icmp ugt ptr %30, %25
  br i1 %31, label %35, label %32

32:                                               ; preds = %.lr.ph.i.i
  %.not5.i = icmp ult ptr %30, %25
  br i1 %.not5.i, label %33, label %bsearch.exit.i

33:                                               ; preds = %32
  %34 = add nuw i64 %27, 1
  br label %35

35:                                               ; preds = %33, %.lr.ph.i.i
  %.118.i.i = phi i64 [ %.01720.i.i, %33 ], [ %27, %.lr.ph.i.i ]
  %.1.i.i = phi i64 [ %34, %33 ], [ %.01621.i.i, %.lr.ph.i.i ]
  %36 = icmp ult i64 %.1.i.i, %.118.i.i
  tail call void @llvm.assume(i1 %36)
  br label %.lr.ph.i.i

bsearch.exit.i:                                   ; preds = %32
  %gep = getelementptr i8, ptr getelementptr inbounds nuw (i8, ptr @reverse_dispatch_table, i64 8), i64 %28
  %37 = load i32, ptr %gep, align 8
  br label %ExecEvalStepOp.exit

38:                                               ; preds = %18
  %39 = trunc i64 %23 to i32
  br label %ExecEvalStepOp.exit

ExecEvalStepOp.exit:                              ; preds = %bsearch.exit.i, %38
  %.0.i = phi i32 [ %37, %bsearch.exit.i ], [ %39, %38 ]
  switch i32 %.0.i, label %49 [
    i32 6, label %.sink.split
    i32 7, label %40
    i32 8, label %41
    i32 9, label %42
    i32 10, label %43
  ]

40:                                               ; preds = %ExecEvalStepOp.exit
  br label %.sink.split

41:                                               ; preds = %ExecEvalStepOp.exit
  br label %.sink.split

42:                                               ; preds = %ExecEvalStepOp.exit
  br label %.sink.split

43:                                               ; preds = %ExecEvalStepOp.exit
  br label %.sink.split

.sink.split:                                      ; preds = %ExecEvalStepOp.exit, %40, %41, %42, %43
  %.sink = phi ptr [ %12, %43 ], [ %10, %42 ], [ %8, %41 ], [ %6, %40 ], [ %4, %ExecEvalStepOp.exit ]
  %44 = getelementptr inbounds nuw i8, ptr %20, i64 24
  %45 = load i32, ptr %44, align 8
  %46 = add i32 %45, 1
  %47 = getelementptr inbounds nuw i8, ptr %20, i64 28
  %48 = load i32, ptr %47, align 4
  tail call fastcc void @CheckVarSlotCompatibility(ptr noundef %.sink, i32 noundef %46, i32 noundef %48)
  br label %49

49:                                               ; preds = %.sink.split, %ExecEvalStepOp.exit
  %indvars.iv.next = add nuw nsw i64 %indvars.iv, 1
  %50 = load i32, ptr %13, align 8
  %51 = sext i32 %50 to i64
  %52 = icmp slt i64 %indvars.iv.next, %51
  br i1 %52, label %18, label %._crit_edge, !llvm.loop !7
}